; Function Attrs: nounwind uwtable
define noundef i32 @H5F__mount_count_ids(ptr noundef captures(address) %0, ptr noundef captures(none) %1, ptr noundef captures(none) %2) local_unnamed_addr #0 {
  %4 = load i8, ptr @H5F_init_g, align 1, !tbaa !3, !range !7, !noundef !8
  %5 = trunc nuw i8 %4 to i1
  %6 = load i8, ptr @H5_libterm_g, align 1, !range !7
  %7 = trunc nuw i8 %6 to i1
  %8 = xor i1 %7, true
  %9 = select i1 %5, i1 true, i1 %8
  br i1 %9, label %.preheader, label %13, !prof !9

.preheader:                                       ; preds = %3, %.preheader
  %.0 = phi ptr [ %11, %.preheader ], [ %0, %3 ]
  %10 = getelementptr inbounds nuw i8, ptr %.0, i64 56
  %11 = load ptr, ptr %10, align 8, !tbaa !43
  %.not = icmp eq ptr %11, null
  br i1 %.not, label %12, label %.preheader, !llvm.loop !68

12:                                               ; preds = %.preheader
  tail call fastcc void @H5F__mount_count_ids_recurse(ptr noundef nonnull %.0, ptr noundef %1, ptr noundef %2)
  br label %13

13:                                               ; preds = %12, %3
  ret i32 0
}